; Function Attrs: nounwind uwtable
define range(i32 -1, 1) i32 @H5FS__decr(ptr noundef %0) local_unnamed_addr #0 {
  %2 = getelementptr inbounds i8, ptr %0, i64 336
  %3 = load i32, ptr %2, align 8
  %4 = add i32 %3, -1
  store i32 %4, ptr %2, align 8
  %5 = icmp eq i32 %4, 0
  br i1 %5, label %6, label %45

6:                                                ; preds = %1
  %7 = getelementptr inbounds i8, ptr %0, i64 344
  %8 = load i64, ptr %7, align 8
  %.not = icmp eq i64 %8, -1
  br i1 %.not, label %16, label %9

9:                                                ; preds = %6
  %10 = tail call i32 @H5AC_unpin_entry(ptr noundef nonnull %0) #5
  %11 = icmp slt i32 %10, 0
  br i1 %11, label %12, label %45

12:                                               ; preds = %9
  %13 = load i64, ptr @H5E_FSPACE_g, align 8
  %14 = load i64, ptr @H5E_CANTUNPIN_g, align 8
  %15 = tail call i32 (ptr, ptr, i32, i64, i64, ptr, ...) @H5E_printf_stack(ptr noundef nonnull @.str.2, ptr noundef nonnull @__func__.H5FS__decr, i32 noundef 740, i64 noundef %13, i64 noundef %14, ptr noundef nonnull @.str.24) #5
  br label %45

16:                                               ; preds = %6
  %17 = getelementptr inbounds i8, ptr %0, i64 284
  %18 = load i16, ptr %17, align 4
  %.not19.i = icmp eq i16 %18, 0
  br i1 %.not19.i, label %._crit_edge.i, label %.lr.ph.i

.lr.ph.i:                                         ; preds = %16
  %19 = getelementptr inbounds i8, ptr %0, i64 408
  br label %20

20:                                               ; preds = %29, %.lr.ph.i
  %21 = phi i16 [ %18, %.lr.ph.i ], [ %30, %29 ]
  %indvars.iv.i = phi i64 [ 0, %.lr.ph.i ], [ %indvars.iv.next.i, %29 ]
  %22 = load ptr, ptr %19, align 8
  %23 = getelementptr inbounds %struct.H5FS_section_class_t, ptr %22, i64 %indvars.iv.i
  %24 = getelementptr inbounds i8, ptr %23, i64 40
  %25 = load ptr, ptr %24, align 8
  %.not17.i = icmp eq ptr %25, null
  br i1 %.not17.i, label %29, label %26

26:                                               ; preds = %20
  %27 = tail call i32 %25(ptr noundef nonnull %23) #5
  %28 = icmp slt i32 %27, 0
  br i1 %28, label %38, label %._crit_edge21.i

._crit_edge21.i:                                  ; preds = %26
  %.pre.i = load i16, ptr %17, align 4
  br label %29

29:                                               ; preds = %._crit_edge21.i, %20
  %30 = phi i16 [ %.pre.i, %._crit_edge21.i ], [ %21, %20 ]
  %indvars.iv.next.i = add nuw nsw i64 %indvars.iv.i, 1
  %31 = zext i16 %30 to i64
  %32 = icmp ult i64 %indvars.iv.next.i, %31
  br i1 %32, label %20, label %._crit_edge.i

._crit_edge.i:                                    ; preds = %29, %16
  %33 = getelementptr inbounds i8, ptr %0, i64 408
  %34 = load ptr, ptr %33, align 8
  %.not.i = icmp eq ptr %34, null
  br i1 %.not.i, label %H5FS__hdr_dest.exit, label %35

35:                                               ; preds = %._crit_edge.i
  %36 = tail call ptr @H5FL_seq_free(ptr noundef nonnull @H5_H5FS_section_class_t_seq_free_list, ptr noundef nonnull %34) #5
  store ptr %36, ptr %33, align 8
  br label %H5FS__hdr_dest.exit

H5FS__hdr_dest.exit:                              ; preds = %._crit_edge.i, %35
  %37 = tail call ptr @H5FL_reg_free(ptr noundef nonnull @H5_H5FS_t_reg_free_list, ptr noundef nonnull %0) #5
  br label %45

38:                                               ; preds = %26
  %39 = load i64, ptr @H5E_RESOURCE_g, align 8
  %40 = load i64, ptr @H5E_CANTRELEASE_g, align 8
  %41 = tail call i32 (ptr, ptr, i32, i64, i64, ptr, ...) @H5E_printf_stack(ptr noundef nonnull @.str.2, ptr noundef nonnull @__func__.H5FS__hdr_dest, i32 noundef 1000, i64 noundef %39, i64 noundef %40, ptr noundef nonnull @.str.31) #5
  %42 = load i64, ptr @H5E_FSPACE_g, align 8
  %43 = load i64, ptr @H5E_CANTCLOSEOBJ_g, align 8
  %44 = tail call i32 (ptr, ptr, i32, i64, i64, ptr, ...) @H5E_printf_stack(ptr noundef nonnull @.str.2, ptr noundef nonnull @__func__.H5FS__decr, i32 noundef 744, i64 noundef %42, i64 noundef %43, ptr noundef nonnull @.str.6) #5
  br label %45

45:                                               ; preds = %H5FS__hdr_dest.exit, %1, %9, %38, %12
  %.0 = phi i32 [ -1, %12 ], [ 0, %9 ], [ -1, %38 ], [ 0, %H5FS__hdr_dest.exit ], [ 0, %1 ]
  ret i32 %.0
}